target datalayout = "e-m:e-p270:32:32-p271:32:32-p272:64:64-i64:64-i128:128-f80:128-n8:16:32:64-S128"
target triple = "x86_64-pc-linux-gnu"

%struct.archive_entry = type { ptr, ptr, i32, %struct.aest, i32, %struct.archive_mstring, i64, i64, %struct.archive_mstring, %struct.archive_mstring, %struct.archive_mstring, %struct.archive_mstring, %struct.archive_mstring, i8, ptr, i64, %struct.ae_digest, %struct.archive_acl, ptr, ptr, ptr, ptr, ptr, [12 x i8], i32 }
%struct.aest = type { i64, i32, i64, i32, i64, i32, i64, i32, i64, i64, i32, i64, i64, i32, i64, i64, i64, i32, i64, i64, i64 }
%struct.archive_mstring = type { %struct.archive_string, %struct.archive_string, %struct.archive_wstring, %struct.archive_string, i32 }
%struct.archive_wstring = type { ptr, i64, i64 }
%struct.archive_string = type { ptr, i64, i64 }
%struct.ae_digest = type { [16 x i8], [20 x i8], [20 x i8], [32 x i8], [48 x i8], [64 x i8] }
%struct.archive_acl = type { i32, ptr, ptr, i32, ptr, ptr, i32 }

; Function Attrs: nounwind uwtable
define dso_local void @archive_entry_set_uid(ptr noundef %0, i64 noundef %1) #0 {
  %3 = alloca ptr, align 8
  %4 = alloca i64, align 8
  store ptr %0, ptr %3, align 8, !tbaa !4
  store i64 %1, ptr %4, align 8, !tbaa !27
  %5 = load i64, ptr %4, align 8, !tbaa !27
  %6 = icmp slt i64 %5, 0
  br i1 %6, label %7, label %8

7:                                                ; preds = %2
  store i64 0, ptr %4, align 8, !tbaa !27
  br label %8

8:                                                ; preds = %7, %2
  %9 = load ptr, ptr %3, align 8, !tbaa !4
  %10 = getelementptr inbounds nuw %struct.archive_entry, ptr %9, i32 0, i32 2
  store i32 0, ptr %10, align 8, !tbaa !94
  %11 = load i64, ptr %4, align 8, !tbaa !27
  %12 = load ptr, ptr %3, align 8, !tbaa !4
  %13 = getelementptr inbounds nuw %struct.archive_entry, ptr %12, i32 0, i32 3
  %14 = getelementptr inbounds nuw %struct.aest, ptr %13, i32 0, i32 12
  store i64 %11, ptr %14, align 8, !tbaa !93
  %15 = load ptr, ptr %3, align 8, !tbaa !4
  %16 = getelementptr inbounds nuw %struct.archive_entry, ptr %15, i32 0, i32 4
  %17 = load i32, ptr %16, align 8, !tbaa !35
  %18 = or i32 %17, 2048
  store i32 %18, ptr %16, align 8, !tbaa !35
  ret void
}